(lp0
S'91 91 22'
p1
aS'12 33 12'
p2
aS'55 6 6'
p3
aS'13 9 7'
p4
aS'7 3 52'
p5
aS'66 6 78'
p6
aS'23 12 28'
p7
aS'7 97 69'
p8
aS'17 2 2'
p9
aS'7 6 3'
p10
aS'9 35 6'
p11
aS'12 52 7'
p12
aS'52 66 66'
p13
aS'27 17 17'
p14
aS'27 7 27'
p15
aS'138 48 48'
p16
aS'27 27 23'
p17
aS'25 23 25'
p18
aS'48 22 22'
p19
aS'33 36 54'
p20
aS'17 32 3'
p21
aS'59 56 119'
p22
aS'26 3 22'
p23
aS'13 70 7'
p24
aS'13 7 1'
p25
aS'7 7 22'
p26
aS'70 6 3'
p27
aS'27 23 27'
p28
aS'44 7 7'
p29
aS'25 27 3'
p30
aS'45 28 148'
p31
aS'39 6 33'
p32
aS'28 12 7'
p33
aS'1 8 2'
p34
aS'21 6 72'
p35
aS'3 31 51'
p36
aS'5 13 7'
p37
aS'3 3 31'
p38
aS'79 79 2'
p39
aS'3 3 38'
p40
aS'3 37 13'
p41
aS'111 22 13'
p42
aS'3 66 6'
p43
aS'3 55 3'
p44
aS'7 7 48'
p45
aS'1 10 102'
p46
aS'7 52 12'
p47
aS'28 12 27'
p48
aS'17 36 21'
p49
aS'54 19 36'
p50
aS'27 25 44'
p51
aS'28 33 6'
p52
aS'138 138 55'
p53
aS'77 68 68'
p54
aS'6 12 33'
p55
aS'27 27 51'
p56
aS'25 27 68'
p57
aS'51 31 31'
p58
aS'2 7 32'
p59
aS'103 23 23'
p60
aS'25 78 78'
p61
aS'27 43 43'
p62
aS'2 2 3'
p63
aS'2 2 18'
p64
aS'7 137 7'
p65
aS'26 107 107'
p66
aS'84 26 72'
p67
aS'5 3 6'
p68
aS'6 66 66'
p69
aS'111 27 27'
p70
aS'58 85 67'
p71
aS'3 6 13'
p72
aS'28 28 33'
p73
aS'32 23 17'
p74
aS'25 27 71'
p75
aS'6 33 52'
p76
aS'51 51 110'
p77
aS'23 25 13'
p78
aS'26 22 22'
p79
aS'7 25 27'
p80
aS'17 12 33'
p81
aS'26 84 24'
p82
aS'7 31 13'
p83
aS'35 36 21'
p84
aS'22 22 7'
p85
aS'28 2 7'
p86
aS'6 3 2'
p87
aS'15 65 33'
p88
aS'31 141 31'
p89
aS'1 17 45'
p90
aS'3 7 23'
p91
aS'2 7 46'
p92
aS'12 7 3'
p93
aS'18 5 5'
p94
aS'26 3 24'
p95
aS'6 22 3'
p96
aS'26 6 13'
p97
aS'17 45 1'
p98
aS'25 1 1'
p99
aS'51 51 25'
p100
aS'13 7 112'
p101
aS'66 66 6'
p102
aS'28 12 23'
p103
aS'78 12 7'
p104
aS'7 7 25'
p105
aS'32 70 13'
p106
aS'7 27 6'
p107
aS'119 48 22'
p108
aS'13 38 2'
p109
aS'38 2 2'
p110
aS'51 7 13'
p111
aS'25 25 12'
p112
aS'12 12 33'
p113
aS'32 32 70'
p114
aS'23 17 17'
p115
aS'27 33 56'
p116
aS'6 112 55'
p117
aS'7 119 6'
p118
aS'2 7 53'
p119
aS'6 27 6'
p120
aS'79 2 7'
p121
aS'137 7 7'
p122
aS'3 99 6'
p123
aS'3 18 3'
p124
aS'24 24 7'
p125
aS'2 2 2'
p126
aS'105 105 3'
p127
aS'33 33 6'
p128
aS'3 3 42'
p129
aS'7 119 119'
p130
aS'62 3 3'
p131
aS'92 27 3'
p132
aS'112 3 3'
p133
aS'36 21 2'
p134
aS'103 31 25'
p135
aS'7 93 94'
p136
aS'7 7 55'
p137
aS'107 26 6'
p138
aS'2 13 38'
p139
aS'7 42 80'
p140
aS'45 1 10'
p141
aS'7 2 6'
p142
aS'23 77 68'
p143
aS'20 9 55'
p144
aS'7 99 6'
p145
aS'112 112 112'
p146
aS'19 36 21'
p147
aS'78 12 23'
p148
aS'48 48 22'
p149
aS'56 119 5'
p150
aS'7 7 9'
p151
aS'6 18 18'
p152
aS'52 119 6'
p153
aS'27 7 97'
p154
aS'5 3 119'
p155
aS'26 48 22'
p156
aS'65 65 35'
p157
aS'3 70 96'
p158
aS'3 150 150'
p159
aS'55 3 5'
p160
aS'7 17 17'
p161
aS'3 112 3'
p162
aS'106 106 12'
p163
aS'2 7 10'
p164
aS'5 3 45'
p165
aS'21 28 28'
p166
aS'22 48 2'
p167
aS'66 66 66'
p168
aS'19 21 10'
p169
aS'52 12 52'
p170
aS'31 51 51'
p171
aS'66 3 28'
p172
aS'6 3 99'
p173
aS'6 3 3'
p174
aS'58 23 42'
p175
aS'25 7 25'
p176
aS'3 3 119'
p177
aS'22 22 48'
p178
aS'119 119 3'
p179
aS'119 23 25'
p180
aS'84 23 25'
p181
aS'7 27 28'
p182
aS'31 27 31'
p183
aS'22 7 7'
p184
aS'120 6 23'
p185
aS'7 23 22'
p186
aS'28 35 6'
p187
aS'38 2 10'
p188
aS'26 72 6'
p189
aS'17 17 32'
p190
aS'51 51 31'
p191
aS'12 33 52'
p192
aS'97 1 97'
p193
aS'19 21 28'
p194
aS'33 7 52'
p195
aS'96 6 13'
p196
aS'7 58 10'
p197
aS'110 31 51'
p198
aS'32 6 13'
p199
aS'58 63 13'
p200
aS'6 6 107'
p201
aS'110 110 28'
p202
aS'25 25 1'
p203
aS'36 6 21'
p204
aS'51 23 23'
p205
aS'27 58 58'
p206
aS'3 119 119'
p207
aS'27 28 23'
p208
aS'6 107 84'
p209
aS'51 110 31'
p210
aS'77 27 31'
p211
aS'13 7 183'
p212
aS'6 112 6'
p213
aS'88 18 18'
p214
aS'106 12 28'
p215
aS'62 6 3'
p216
aS'25 51 51'
p217
aS'51 139 51'
p218
aS'58 3 7'
p219
aS'138 13 7'
p220
aS'138 138 112'
p221
aS'6 6 18'
p222
aS'7 9 93'
p223
aS'7 9 10'
p224
aS'77 7 79'
p225
aS'33 223 223'
p226
aS'79 79 79'
p227
aS'6 42 6'
p228
aS'119 119 48'
p229
aS'7 6 112'
p230
aS'19 21 6'
p231
aS'6 6 33'
p232
aS'58 31 25'
p233
aS'58 58 3'
p234
aS'2 7 51'
p235
aS'27 58 150'
p236
aS'28 31 31'
p237
aS'152 222 221'
p238
aS'78 12 12'
p239
aS'3 12 13'
p240
aS'7 25 7'
p241
aS'59 56 66'
p242
aS'18 38 2'
p243
aS'3 3 70'
p244
aS'27 2 7'
p245
aS'22 22 119'
p246
aS'6 9 1'
p247
aS'6 23 27'
p248
aS'3 22 2'
p249
aS'3 8 3'
p250
aS'31 141 141'
p251
aS'7 33 99'
p252
aS'206 13 7'
p253
aS'51 51 7'
p254
aS'81 7 82'
p255
aS'7 89 51'
p256
aS'13 7 55'
p257
aS'7 58 33'
p258
aS'7 94 94'
p259
aS'7 109 109'
p260
aS'112 55 138'
p261
aS'52 56 66'
p262
aS'6 6 97'
p263
aS'22 3 23'
p264
aS'45 55 2'
p265
aS'55 3 67'
p266
aS'17 7 7'
p267
aS'13 7 99'
p268
aS'23 27 22'
p269
aS'98 23 23'
p270
aS'13 7 103'
p271
aS'27 51 139'
p272
aS'6 33 6'
p273
aS'119 3 5'
p274
aS'23 23 119'
p275
aS'13 7 224'
p276
aS'27 6 72'
p277
aS'33 119 123'
p278
aS'119 24 26'
p279
aS'36 21 3'
p280
aS'7 7 45'
p281
aS'72 6 33'
p282
aS'7 3 7'
p283
aS'7 48 22'
p284
aS'13 6 89'
p285
aS'7 7 93'
p286
aS'140 142 144'
p287
aS'48 2 7'
p288
aS'58 31 7'
p289
aS'7 117 7'
p290
aS'5 6 6'
p291
aS'68 23 25'
p292
aS'36 21 13'
p293
aS'6 6 45'
p294
aS'28 28 31'
p295
aS'48 48 91'
p296
aS'119 5 5'
p297
aS'7 106 106'
p298
aS'51 27 55'
p299
aS'32 120 6'
p300
aS'7 7 106'
p301
aS'3 1 3'
p302
aS'13 7 106'
p303
aS'19 21 110'
p304
aS'70 7 23'
p305
aS'19 65 65'
p306
aS'72 6 6'
p307
aS'27 58 31'
p308
aS'119 13 7'
p309
aS'19 103 69'
p310
aS'55 3 6'
p311
aS'51 51 23'
p312
aS'27 111 22'
p313
aS'45 17 3'
p314
aS'99 145 152'
p315
aS'3 11 28'
p316
aS'7 23 7'
p317
aS'31 27 141'
p318
aS'22 6 23'
p319
aS'3 10 10'
p320
aS'13 7 50'
p321
aS'7 7 3'
p322
aS'7 29 23'
p323
aS'27 51 51'
p324
aS'27 77 25'
p325
aS'7 50 7'
p326
aS'23 23 91'
p327
aS'23 25 42'
p328
aS'97 1 1'
p329
aS'119 3 3'
p330
aS'6 5 6'
p331
aS'145 221 145'
p332
aS'6 80 56'
p333
aS'58 33 33'
p334
aS'81 82 13'
p335
aS'27 132 23'
p336
aS'3 3 106'
p337
aS'84 24 26'
p338
aS'18 18 6'
p339
aS'68 23 77'
p340
aS'2 10 11'
p341
aS'26 18 18'
p342
aS'160 160 27'
p343
aS'33 33 56'
p344
aS'66 66 7'
p345
aS'3 3 14'
p346
aS'119 66 119'
p347
aS'80 56 66'
p348
aS'7 7 70'
p349
aS'3 66 3'
p350
aS'3 66 5'
p351
aS'25 7 27'
p352
aS'111 91 91'
p353
aS'9 31 51'
p354
aS'6 6 42'
p355
aS'25 27 89'
p356
aS'5 6 23'
p357
aS'7 7 52'
p358
aS'6 27 27'
p359
aS'28 32 120'
p360
aS'29 23 25'
p361
aS'6 12 28'
p362
aS'160 27 27'
p363
aS'149 13 7'
p364
aS'119 28 33'
p365
aS'26 71 84'
p366
aS'6 9 27'
p367
aS'119 119 5'
p368
aS'22 7 3'
p369
aS'7 6 7'
p370
aS'38 2 38'
p371
aS'3 3 2'
p372
aS'7 2 2'
p373
aS'66 3 119'
p374
aS'6 29 6'
p375
aS'84 107 26'
p376
aS'27 10 11'
p377
aS'31 160 27'
p378
aS'7 54 7'
p379
aS'7 80 2'
p380
aS'51 25 25'
p381
aS'23 23 19'
p382
aS'51 13 7'
p383
aS'21 110 28'
p384
aS'1 127 99'
p385
aS'144 144 6'
p386
aS'13 2 13'
p387
aS'7 1 13'
p388
aS'17 17 7'
p389
aS'6 6 4'
p390
aS'11 28 3'
p391
aS'6 6 63'
p392
aS'28 33 52'
p393
aS'25 27 119'
p394
aS'112 6 6'
p395
aS'48 22 19'
p396
aS'6 13 49'
p397
aS'91 91 111'
p398
aS'7 9 206'
p399
aS'7 106 28'
p400
aS'7 31 51'
p401
aS'22 48 119'
p402
aS'111 23 23'
p403
aS'27 27 71'
p404
aS'27 6 23'
p405
aS'22 48 91'
p406
aS'10 6 23'
p407
aS'27 119 119'
p408
aS'6 6 9'
p409
aS'51 27 13'
p410
aS'68 27 13'
p411
aS'9 6 6'
p412
aS'48 7 22'
p413
aS'27 77 77'
p414
aS'51 51 13'
p415
aS'17 61 13'
p416
aS'7 93 93'
p417
aS'7 7 17'
p418
aS'27 58 3'
p419
aS'123 6 148'
p420
aS'33 52 12'
p421
aS'7 106 12'
p422
aS'24 26 18'
p423
aS'7 7 28'
p424
aS'23 51 23'
p425
aS'27 27 80'
p426
aS'132 103 31'
p427
aS'27 27 185'
p428
aS'52 52 3'
p429
aS'197 58 63'
p430
aS'13 7 88'
p431
aS'6 21 6'
p432
aS'7 58 110'
p433
aS'17 3 2'
p434
aS'32 6 27'
p435
aS'25 149 13'
p436
aS'10 6 6'
p437
aS'56 59 56'
p438
aS'25 132 132'
p439
aS'22 48 6'
p440
aS'222 145 221'
p441
aS'3 10 6'
p442
aS'99 6 3'
p443
aS'105 6 6'
p444
aS'7 183 7'
p445
aS'119 119 23'
p446
aS'58 3 3'
p447
aS'50 7 117'
p448
aS'27 141 31'
p449
aS'7 27 13'
p450
aS'160 27 31'
p451
aS'110 6 6'
p452
aS'110 6 13'
p453
aS'54 56 119'
p454
aS'33 6 39'
p455
aS'23 25 31'
p456
aS'6 32 6'
p457
aS'35 62 6'
p458
aS'23 31 51'
p459
aS'7 7 112'
p460
aS'42 6 6'
p461
aS'130 186 131'
p462
aS'28 28 51'
p463
aS'3 3 112'
p464
aS'63 13 7'
p465
aS'146 7 31'
p466
aS'16 10 6'
p467
aS'6 39 6'
p468
aS'27 51 31'
p469
aS'5 5 72'
p470
aS'28 31 51'
p471
aS'141 141 27'
p472
aS'142 144 144'
p473
aS'27 2 24'
p474
aS'23 79 79'
p475
aS'51 27 23'
p476
aS'132 187 31'
p477
aS'119 7 119'
p478
aS'27 31 13'
p479
aS'77 25 149'
p480
aS'27 7 22'
p481
aS'106 28 28'
p482
aS'3 3 1'
p483
aS'56 66 5'
p484
aS'6 7 27'
p485
aS'72 6 27'
p486
aS'21 3 3'
p487
aS'84 23 23'
p488
aS'80 7 7'
p489
aS'54 19 21'
p490
aS'7 6 9'
p491
aS'27 71 26'
p492
aS'27 31 106'
p493
aS'22 48 22'
p494
aS'7 17 13'
p495
aS'18 18 1'
p496
aS'66 5 56'
p497
aS'12 23 25'
p498
aS'221 222 145'
p499
aS'117 7 118'
p500
aS'132 132 187'
p501
aS'51 27 160'
p502
aS'33 66 3'
p503
aS'23 23 7'
p504
aS'17 61 7'
p505
aS'130 145 221'
p506
aS'22 22 35'
p507
aS'51 27 139'
p508
aS'27 97 7'
p509
aS'2 2 1'
p510
aS'9 6 20'
p511
aS'28 28 28'
p512
aS'33 6 33'
p513
aS'27 89 51'
p514
aS'23 23 98'
p515
aS'92 92 27'
p516
aS'6 119 119'
p517
aS'72 6 7'
p518
aS'5 6 24'
p519
aS'11 28 24'
p520
aS'42 2 7'
p521
aS'48 6 6'
p522
aS'149 33 223'
p523
aS'7 22 7'
p524
aS'9 97 9'
p525
aS'1 31 51'
p526
aS'96 2 7'
p527
aS'32 32 23'
p528
aS'6 23 31'
p529
aS'92 51 51'
p530
aS'7 3 5'
p531
aS'11 11 28'
p532
aS'58 58 13'
p533
aS'27 31 25'
p534
aS'2 7 119'
p535
aS'6 10 69'
p536
aS'6 6 32'
p537
aS'13 48 22'
p538
aS'7 22 10'
p539
aS'89 51 51'
p540
aS'7 10 6'
p541
aS'23 27 102'
p542
aS'84 26 24'
p543
aS'52 52 13'
p544
aS'119 2 7'
p545
aS'93 93 7'
p546
aS'3 7 3'
p547
aS'222 221 222'
p548
aS'7 7 31'
p549
aS'28 32 6'
p550
aS'6 20 9'
p551
aS'11 58 3'
p552
aS'3 28 3'
p553
aS'7 31 89'
p554
aS'31 106 28'
p555
aS'27 141 27'
p556
aS'27 132 132'
p557
aS'11 11 58'
p558
aS'99 6 6'
p559
aS'51 23 51'
p560
aS'102 25 27'
p561
aS'148 33 28'
p562
aS'25 27 32'
p563
aS'33 28 123'
p564
aS'6 6 112'
p565
aS'31 188 23'
p566
aS'25 27 31'
p567
aS'143 27 89'
p568
aS'6 3 6'
p569
aS'119 119 66'
p570
aS'138 91 91'
p571
aS'146 13 7'
p572
aS'2 3 3'
p573
aS'119 123 6'
p574
aS'22 48 13'
p575
aS'68 69 92'
p576
aS'7 6 72'
p577
aS'5 56 66'
p578
aS'84 26 3'
p579
aS'97 89 51'
p580
aS'61 7 3'
p581
aS'85 67 13'
p582
aS'7 31 160'
p583
aS'131 132 132'
p584
aS'27 32 6'
p585
aS'27 27 99'
p586
aS'132 132 189'
p587
aS'51 7 27'
p588
aS'22 10 11'
p589
aS'119 119 123'
p590
aS'33 54 36'
p591
aS'2 38 13'
p592
aS'58 69 92'
p593
aS'79 79 27'
p594
aS'42 42 2'
p595
aS'35 62 3'
p596
aS'25 27 111'
p597
aS'38 31 31'
p598
aS'132 132 27'
p599
aS'145 221 222'
p600
aS'22 22 2'
p601
aS'3 5 6'
p602
aS'66 7 6'
p603
aS'19 89 51'
p604
aS'70 96 6'
p605
aS'10 69 27'
p606
aS'237 10 6'
p607
aS'22 23 25'
p608
aS'91 91 91'
p609
aS'6 148 5'
p610
aS'7 28 23'
p611
aS'92 101 68'
p612
aS'22 7 48'
p613
aS'2 3 2'
p614
aS'55 96 2'
p615
aS'51 31 141'
p616
aS'3 6 6'
p617
aS'14 14 14'
p618
aS'22 111 13'
p619
aS'27 7 13'
p620
aS'45 6 23'
p621
aS'19 13 7'
p622
aS'51 51 51'
p623
aS'27 31 89'
p624
aS'6 12 13'
p625
aS'2 7 29'
p626
aS'111 7 48'
p627
aS'64 26 3'
p628
aS'27 6 29'
p629
aS'2 7 23'
p630
aS'7 7 69'
p631
aS'89 92 143'
p632
aS'129 130 186'
p633
aS'94 94 7'
p634
aS'36 21 27'
p635
aS'95 55 96'
p636
aS'51 2 7'
p637
aS'70 13 7'
p638
aS'32 19 103'
p639
aS'7 12 100'
p640
aS'13 7 12'
p641
aS'25 6 33'
p642
aS'67 13 7'
p643
aS'27 27 110'
p644
aS'99 6 99'
p645
aS'138 112 55'
p646
aS'13 7 48'
p647
aS'13 7 42'
p648
aS'9 9 97'
p649
aS'69 27 27'
p650
aS'101 68 69'
p651
aS'48 22 7'
p652
aS'58 11 11'
p653
aS'22 37 13'
p654
aS'6 58 58'
p655
aS'119 119 7'
p656
aS'13 27 31'
p657
aS'25 27 17'
p658
aS'3 2 2'
p659
aS'97 127 128'
p660
aS'25 27 2'
p661
aS'32 6 32'
p662
aS'27 27 69'
p663
aS'21 27 27'
p664
aS'7 69 23'
p665
aS'65 11 65'
p666
aS'66 56 6'
p667
aS'152 152 222'
p668
aS'51 51 132'
p669
aS'2 70 13'
p670
aS'106 28 51'
p671
aS'9 6 58'
p672
aS'51 27 51'
p673
aS'27 99 6'
p674
aS'25 25 112'
p675
aS'6 89 51'
p676
aS'48 48 13'
p677
aS'185 23 23'
p678
aS'23 23 28'
p679
aS'28 11 11'
p680
aS'51 89 27'
p681
aS'28 51 51'
p682
aS'42 3 18'
p683
aS'27 22 23'
p684
aS'89 27 89'
p685
aS'69 92 92'
p686
aS'18 1 1'
p687
aS'92 27 101'
p688
aS'51 51 2'
p689
aS'32 32 103'
p690
aS'89 92 92'
p691
aS'66 6 7'
p692
aS'37 13 6'
p693
aS'27 27 7'
p694
aS'36 17 21'
p695
aS'99 6 7'
p696
aS'28 23 7'
p697
aS'6 6 3'
p698
aS'79 27 23'
p699
aS'56 66 54'
p700
aS'77 77 31'
p701
aS'96 6 25'
p702
aS'92 92 92'
p703
aS'23 69 27'
p704
aS'3 45 17'
p705
aS'51 132 51'
p706
aS'129 130 145'
p707
aS'27 97 1'
p708
aS'3 2 45'
p709
aS'26 84 23'
p710
aS'111 22 111'
p711
aS'141 27 89'
p712
aS'51 51 89'
p713
aS'47 28 33'
p714
aS'7 45 110'
p715
aS'123 54 19'
p716
aS'7 70 96'
p717
aS'27 7 45'
p718
aS'9 93 94'
p719
aS'27 6 32'
p720
aS'27 31 160'
p721
aS'119 23 23'
p722
aS'7 6 80'
p723
aS'94 7 13'
p724
aS'27 32 39'
p725
aS'23 27 58'
p726
aS'48 7 48'
p727
aS'27 55 77'
p728
aS'7 7 2'
p729
aS'2 70 6'
p730
aS'48 22 48'
p731
aS'6 6 19'
p732
aS'27 27 19'
p733
aS'23 7 10'
p734
aS'110 28 148'
p735
aS'10 22 6'
p736
aS'27 27 97'
p737
aS'6 22 22'
p738
aS'54 36 17'
p739
aS'39 33 33'
p740
aS'187 31 188'
p741
aS'55 2 70'
p742
aS'51 27 132'
p743
aS'25 51 13'
p744
aS'27 3 5'
p745
aS'6 25 149'
p746
aS'50 7 10'
p747
aS'100 9 9'
p748
aS'3 33 119'
p749
aS'132 27 27'
p750
aS'69 27 69'
p751
aS'12 12 28'
p752
aS'67 23 25'
p753
aS'93 94 7'
p754
aS'13 7 69'
p755
aS'7 31 23'
p756
aS'25 149 23'
p757
aS'7 19 13'
p758
aS'7 22 48'
p759
aS'48 13 7'
p760
aS'111 13 7'
p761
aS'55 9 6'
p762
aS'29 6 6'
p763
aS'7 118 7'
p764
aS'7 2 70'
p765
aS'77 77 77'
p766
aS'3 56 66'
p767
aS'6 32 32'
p768
aS'27 23 69'
p769
aS'52 13 7'
p770
aS'88 13 7'
p771
aS'118 7 7'
p772
aS'27 25 149'
p773
aS'2 7 72'
p774
aS'88 88 88'
p775
aS'6 55 2'
p776
aS'1 18 18'
p777
aS'119 119 6'
p778
aS'7 33 7'
p779
aS'23 25 6'
p780
aS'7 17 2'
p781
aS'5 72 6'
p782
aS'51 27 6'
p783
aS'6 6 167'
p784
aS'93 7 94'
p785
aS'1 3 5'
p786
aS'68 27 23'
p787
aS'7 7 10'
p788
aS'27 110 6'
p789
aS'48 48 48'
p790
aS'143 143 143'
p791
aS'27 6 13'
p792
aS'109 109 109'
p793
aS'160 27 51'
p794
aS'51 27 31'
p795
aS'6 6 145'
p796
aS'68 68 23'
p797
aS'88 88 13'
p798
aS'12 12 13'
p799
aS'27 17 2'
p800
aS'94 7 67'
p801
aS'150 19 21'
p802
aS'7 82 7'
p803
aS'6 1 23'
p804
aS'32 6 23'
p805
aS'27 110 110'
p806
aS'82 13 7'
p807
aS'48 22 23'
p808
aS'13 12 13'
p809
aS'26 11 28'
p810
aS'143 143 27'
p811
aS'6 14 14'
p812
aS'58 110 45'
p813
aS'3 3 5'
p814
aS'89 27 92'
p815
aS'51 13 12'
p816
aS'51 7 2'
p817
aS'28 12 12'
p818
aS'12 60 12'
p819
aS'22 7 22'
p820
aS'132 132 132'
p821
aS'23 7 27'
p822
aS'101 13 7'
p823
aS'23 25 23'
p824
aS'7 48 48'
p825
aS'6 6 72'
p826
aS'32 23 25'
p827
aS'54 36 21'
p828
aS'13 72 6'
p829
aS'45 110 13'
p830
aS'13 17 17'
p831
aS'7 88 88'
p832
aS'150 150 19'
p833
aS'6 6 99'
p834
aS'22 2 24'
p835
aS'132 23 23'
p836
aS'7 67 20'
p837
aS'13 7 119'
p838
aS'97 9 6'
p839
aS'23 51 51'
p840
aS'5 3 13'
p841
aS'58 55 3'
p842
aS'2 2 13'
p843
aS'27 102 25'
p844
aS'28 123 54'
p845
aS'65 24 26'
p846
aS'92 92 51'
p847
aS'45 17 61'
p848
aS'132 132 103'
p849
aS'20 9 13'
p850
aS'27 31 51'
p851
aS'13 7 19'
p852
aS'77 31 51'
p853
aS'132 51 51'
p854
aS'7 3 22'
p855
aS'92 143 143'
p856
aS'28 23 25'
p857
aS'103 69 23'
p858
aS'7 23 120'
p859
aS'17 2 7'
p860
aS'82 7 6'
p861
aS'13 7 89'
p862
aS'25 27 25'
p863
aS'13 7 93'
p864
aS'32 32 19'
p865
aS'27 139 31'
p866
aS'7 6 25'
p867
aS'32 32 32'
p868
aS'100 100 9'
p869
aS'27 27 10'
p870
aS'13 7 81'
p871
aS'17 13 7'
p872
aS'17 17 13'
p873
aS'28 148 33'
p874
aS'7 79 7'
p875
aS'36 54 21'
p876
aS'51 27 77'
p877
aS'7 22 13'
p878
aS'23 27 13'
p879
aS'22 48 48'
p880
aS'2 6 6'
p881
aS'222 99 145'
p882
aS'66 3 56'
p883
aS'31 25 13'
p884
aS'141 31 51'
p885
aS'7 12 12'
p886
aS'7 51 7'
p887
aS'6 6 27'
p888
aS'27 89 92'
p889
aS'32 103 69'
p890
aS'1 97 1'
p891
aS'58 10 6'
p892
aS'221 222 99'
p893
aS'31 51 27'
p894
aS'24 26 48'
p895
aS'27 27 6'
p896
aS'106 23 25'
p897
aS'7 2 3'
p898
aS'7 7 88'
p899
aS'145 152 152'
p900
aS'10 11 28'
p901
aS'55 13 7'
p902
aS'52 119 119'
p903
aS'23 27 10'
p904
aS'27 97 89'
p905
aS'154 128 129'
p906
aS'23 28 23'
p907
aS'97 69 23'
p908
aS'2 45 17'
p909
aS'98 98 23'
p910
aS'31 89 27'
p911
aS'7 45 6'
p912
aS'28 148 114'
p913
aS'12 13 7'
p914
aS'3 3 6'
p915
aS'127 128 129'
p916
aS'32 39 33'
p917
aS'66 54 36'
p918
aS'97 7 58'
p919
aS'7 7 119'
p920
aS'6 45 55'
p921
aS'1 1 127'
p922
aS'69 27 77'
p923
aS'7 55 13'
p924
aS'3 6 5'
p925
aS'6 25 25'
p926
aS'89 51 27'
p927
aS'6 33 54'
p928
aS'31 7 51'
p929
aS'144 144 144'
p930
aS'31 23 51'
p931
aS'2 2 58'
p932
aS'28 24 26'
p933
aS'5 3 2'
p934
aS'23 22 22'
p935
aS'27 160 160'
p936
aS'24 26 22'
p937
aS'6 24 26'
p938
aS'22 22 37'
p939
aS'51 27 89'
p940
aS'25 6 27'
p941
aS'25 25 51'
p942
aS'3 13 17'
p943
aS'91 91 138'
p944
aS'186 131 132'
p945
aS'26 6 10'
p946
aS'3 3 8'
p947
aS'152 152 152'
p948
aS'27 27 132'
p949
aS'11 28 11'
p950
aS'69 23 23'
p951
aS'11 6 22'
p952
aS'149 23 25'
p953
aS'7 27 2'
p954
aS'7 69 92'
p955
aS'12 28 32'
p956
aS'51 27 141'
p957
aS'67 20 9'
p958
aS'51 27 25'
p959
aS'6 6 7'
p960
aS'27 69 23'
p961
aS'27 69 27'
p962
aS'28 3 11'
p963
aS'12 27 27'
p964
aS'27 92 27'
p965
aS'119 119 119'
p966
aS'12 100 100'
p967
aS'37 13 72'
p968
aS'119 6 9'
p969
aS'3 6 72'
p970
aS'139 51 2'
p971
aS'139 31 51'
p972
aS'23 98 98'
p973
aS'28 11 28'
p974
aS'52 3 66'
p975
aS'92 92 101'
p976
aS'92 27 68'
p977
aS'22 119 119'
p978
aS'20 9 31'
p979
aS'23 77 25'
p980
aS'98 23 25'
p981
aS'58 58 10'
p982
aS'6 99 6'
p983
aS'66 5 6'
p984
aS'32 6 12'
p985
aS'7 42 42'
p986
aS'27 23 68'
p987
aS'7 81 7'
p988
aS'221 145 221'
p989
aS'22 111 7'
p990
aS'25 25 132'
p991
aS'58 13 7'
p992
aS'13 7 31'
p993
aS'128 129 130'
p994
aS'22 35 62'
p995
aS'119 119 2'
p996
aS'6 33 119'
p997
aS'110 13 7'
p998
aS'51 51 27'
p999
aS'27 10 6'
p1000
a.